#include <math.h>
#include <stdio.h>
#include <stdlib.h>
#include <string.h>

void main ()
{
 int x1,x2,k,m,i,j;              /*??????x1,x2,k,m,i,j*/
 char c[100],c1[100];            /*??????c[100],c1[100]*/
 gets(c);                        /*?????c*/
 k=strlen(c);                    /*??c??????k*/
 x1=k;m=0;                       /*x1???k?m???0*/
 for(i=k-1;i>=0;i--)             /*???????????????i?x2*/
 {
   if(c[i]==' ')
    {
      x2=i;
      for(j=0;j<x1-x2-1;j++)     /*???i??????????????c1*/
       c1[j+m]=c[j+x2+1];        
	   c1[x1-x2+m-1]=' ';        /*?????????????*/
	   m=m+x1-x2;                /*??????m?m???????*/
	   x1=x2;                    /*x1???????i?*/
   }
 }
 if (i<0)                          /*???????????????????c1???*/
  for (j=0;j<x1;j++)
    c1[k-x1+j]=c[j];
 for(i=0;i<k;i++)                /*???k??c1*/
	 printf("%c",c1[i]);
}