; ModuleID = '23/1134.c'
source_filename = "23/1134.c"
target datalayout = "e-m:e-p270:32:32-p271:32:32-p272:64:64-i64:64-f80:128-n8:16:32:64-S128"
target triple = "x86_64-pc-linux-gnu"

@.str = private unnamed_addr constant [3 x i8] c"%c\00", align 1

; Function Attrs: noinline nounwind uwtable
define dso_local void @main() #0 {
  %1 = alloca i32, align 4
  %2 = alloca i32, align 4
  %3 = alloca i32, align 4
  %4 = alloca i32, align 4
  %5 = alloca i32, align 4
  %6 = alloca i32, align 4
  %7 = alloca [100 x i8], align 16
  %8 = alloca [100 x i8], align 16
  %9 = getelementptr inbounds [100 x i8], [100 x i8]* %7, i64 0, i64 0
  %10 = call i32 (i8*, ...) bitcast (i32 (...)* @gets to i32 (i8*, ...)*)(i8* %9)
  %11 = getelementptr inbounds [100 x i8], [100 x i8]* %7, i64 0, i64 0
  %12 = call i64 @strlen(i8* %11) #3
  %13 = trunc i64 %12 to i32
  store i32 %13, i32* %3, align 4
  %14 = load i32, i32* %3, align 4
  store i32 %14, i32* %1, align 4
  store i32 0, i32* %4, align 4
  %15 = load i32, i32* %3, align 4
  %16 = sub nsw i32 %15, 1
  store i32 %16, i32* %5, align 4
  br label %17

17:                                               ; preds = %68, %0
  %18 = load i32, i32* %5, align 4
  %19 = icmp sge i32 %18, 0
  br i1 %19, label %20, label %71

20:                                               ; preds = %17
  %21 = load i32, i32* %5, align 4
  %22 = sext i32 %21 to i64
  %23 = getelementptr inbounds [100 x i8], [100 x i8]* %7, i64 0, i64 %22
  %24 = load i8, i8* %23, align 1
  %25 = sext i8 %24 to i32
  %26 = icmp eq i32 %25, 32
  br i1 %26, label %27, label %67

27:                                               ; preds = %20
  %28 = load i32, i32* %5, align 4
  store i32 %28, i32* %2, align 4
  store i32 0, i32* %6, align 4
  br label %29

29:                                               ; preds = %49, %27
  %30 = load i32, i32* %6, align 4
  %31 = load i32, i32* %1, align 4
  %32 = load i32, i32* %2, align 4
  %33 = sub nsw i32 %31, %32
  %34 = sub nsw i32 %33, 1
  %35 = icmp slt i32 %30, %34
  br i1 %35, label %36, label %52

36:                                               ; preds = %29
  %37 = load i32, i32* %6, align 4
  %38 = load i32, i32* %2, align 4
  %39 = add nsw i32 %37, %38
  %40 = add nsw i32 %39, 1
  %41 = sext i32 %40 to i64
  %42 = getelementptr inbounds [100 x i8], [100 x i8]* %7, i64 0, i64 %41
  %43 = load i8, i8* %42, align 1
  %44 = load i32, i32* %6, align 4
  %45 = load i32, i32* %4, align 4
  %46 = add nsw i32 %44, %45
  %47 = sext i32 %46 to i64
  %48 = getelementptr inbounds [100 x i8], [100 x i8]* %8, i64 0, i64 %47
  store i8 %43, i8* %48, align 1
  br label %49

49:                                               ; preds = %36
  %50 = load i32, i32* %6, align 4
  %51 = add nsw i32 %50, 1
  store i32 %51, i32* %6, align 4
  br label %29

52:                                               ; preds = %29
  %53 = load i32, i32* %1, align 4
  %54 = load i32, i32* %2, align 4
  %55 = sub nsw i32 %53, %54
  %56 = load i32, i32* %4, align 4
  %57 = add nsw i32 %55, %56
  %58 = sub nsw i32 %57, 1
  %59 = sext i32 %58 to i64
  %60 = getelementptr inbounds [100 x i8], [100 x i8]* %8, i64 0, i64 %59
  store i8 32, i8* %60, align 1
  %61 = load i32, i32* %4, align 4
  %62 = load i32, i32* %1, align 4
  %63 = add nsw i32 %61, %62
  %64 = load i32, i32* %2, align 4
  %65 = sub nsw i32 %63, %64
  store i32 %65, i32* %4, align 4
  %66 = load i32, i32* %2, align 4
  store i32 %66, i32* %1, align 4
  br label %67

67:                                               ; preds = %52, %20
  br label %68

68:                                               ; preds = %67
  %69 = load i32, i32* %5, align 4
  %70 = add nsw i32 %69, -1
  store i32 %70, i32* %5, align 4
  br label %17

71:                                               ; preds = %17
  %72 = load i32, i32* %5, align 4
  %73 = icmp slt i32 %72, 0
  br i1 %73, label %74, label %95

74:                                               ; preds = %71
  store i32 0, i32* %6, align 4
  br label %75

75:                                               ; preds = %91, %74
  %76 = load i32, i32* %6, align 4
  %77 = load i32, i32* %1, align 4
  %78 = icmp slt i32 %76, %77
  br i1 %78, label %79, label %94

79:                                               ; preds = %75
  %80 = load i32, i32* %6, align 4
  %81 = sext i32 %80 to i64
  %82 = getelementptr inbounds [100 x i8], [100 x i8]* %7, i64 0, i64 %81
  %83 = load i8, i8* %82, align 1
  %84 = load i32, i32* %3, align 4
  %85 = load i32, i32* %1, align 4
  %86 = sub nsw i32 %84, %85
  %87 = load i32, i32* %6, align 4
  %88 = add nsw i32 %86, %87
  %89 = sext i32 %88 to i64
  %90 = getelementptr inbounds [100 x i8], [100 x i8]* %8, i64 0, i64 %89
  store i8 %83, i8* %90, align 1
  br label %91

91:                                               ; preds = %79
  %92 = load i32, i32* %6, align 4
  %93 = add nsw i32 %92, 1
  store i32 %93, i32* %6, align 4
  br label %75

94:                                               ; preds = %75
  br label %95

95:                                               ; preds = %94, %71
  store i32 0, i32* %5, align 4
  br label %96

96:                                               ; preds = %107, %95
  %97 = load i32, i32* %5, align 4
  %98 = load i32, i32* %3, align 4
  %99 = icmp slt i32 %97, %98
  br i1 %99, label %100, label %110

100:                                              ; preds = %96
  %101 = load i32, i32* %5, align 4
  %102 = sext i32 %101 to i64
  %103 = getelementptr inbounds [100 x i8], [100 x i8]* %8, i64 0, i64 %102
  %104 = load i8, i8* %103, align 1
  %105 = sext i8 %104 to i32
  %106 = call i32 (i8*, ...) @printf(i8* getelementptr inbounds ([3 x i8], [3 x i8]* @.str, i64 0, i64 0), i32 %105)
  br label %107

107:                                              ; preds = %100
  %108 = load i32, i32* %5, align 4
  %109 = add nsw i32 %108, 1
  store i32 %109, i32* %5, align 4
  br label %96

110:                                              ; preds = %96
  ret void
}

declare dso_local i32 @gets(...) #1

; Function Attrs: nounwind readonly
declare dso_local i64 @strlen(i8*) #2

declare dso_local i32 @printf(i8*, ...) #1


!llvm.module.flags = !{!0}
!llvm.ident = !{!1}

!0 = !{i32 1, !"wchar_size", i32 4}
!1 = !{!"clang version 10.0.0-4ubuntu1 "}
