; ModuleID = 'source-C-CXX/22/1134.c'
source_filename = "source-C-CXX/22/1134.c"
target datalayout = "e-m:e-p270:32:32-p271:32:32-p272:64:64-i64:64-f80:128-n8:16:32:64-S128"
target triple = "x86_64-pc-linux-gnu"

; Function Attrs: nounwind sspstrong uwtable
define dso_local void @main() local_unnamed_addr #0 {
  %1 = alloca [100 x i8], align 16
  %2 = alloca [100 x i8], align 16
  %3 = getelementptr inbounds [100 x i8], [100 x i8]* %1, i64 0, i64 0
  call void @llvm.lifetime.start.p0i8(i64 100, i8* nonnull %3) #6
  %4 = getelementptr inbounds [100 x i8], [100 x i8]* %2, i64 0, i64 0
  call void @llvm.lifetime.start.p0i8(i64 100, i8* nonnull %4) #6
  %5 = call i32 (i8*, ...) bitcast (i32 (...)* @gets to i32 (i8*, ...)*)(i8* nonnull %3) #6
  %6 = call i64 @strlen(i8* noundef nonnull %3) #7
  %7 = trunc i64 %6 to i32
  %8 = icmp sgt i32 %7, 0
  br i1 %8, label %9, label %317

9:                                                ; preds = %0
  %10 = and i64 %6, 4294967295
  br label %128

11:                                               ; preds = %269
  %12 = sub i32 %7, %270
  %13 = icmp sgt i32 %270, 0
  br i1 %13, label %14, label %275

14:                                               ; preds = %11
  %15 = zext i32 %270 to i64
  %16 = icmp ult i32 %270, 8
  br i1 %16, label %107, label %17

17:                                               ; preds = %14
  %18 = add nsw i64 %15, -1
  %19 = trunc i64 %18 to i32
  %20 = add i32 %12, %19
  %21 = icmp slt i32 %20, %12
  %22 = icmp ugt i64 %18, 4294967295
  %23 = or i1 %21, %22
  br i1 %23, label %107, label %24

24:                                               ; preds = %17
  %25 = icmp ult i32 %270, 32
  br i1 %25, label %90, label %26

26:                                               ; preds = %24
  %27 = and i64 %15, 4294967264
  %28 = add nsw i64 %27, -32
  %29 = lshr exact i64 %28, 5
  %30 = add nuw nsw i64 %29, 1
  %31 = and i64 %30, 1
  %32 = icmp eq i64 %28, 0
  br i1 %32, label %68, label %33

33:                                               ; preds = %26
  %34 = and i64 %30, 1152921504606846974
  br label %35

35:                                               ; preds = %35, %33
  %36 = phi i64 [ 0, %33 ], [ %65, %35 ]
  %37 = phi i64 [ %34, %33 ], [ %66, %35 ]
  %38 = getelementptr inbounds [100 x i8], [100 x i8]* %1, i64 0, i64 %36
  %39 = bitcast i8* %38 to <16 x i8>*
  %40 = load <16 x i8>, <16 x i8>* %39, align 16, !tbaa !5
  %41 = getelementptr inbounds i8, i8* %38, i64 16
  %42 = bitcast i8* %41 to <16 x i8>*
  %43 = load <16 x i8>, <16 x i8>* %42, align 16, !tbaa !5
  %44 = trunc i64 %36 to i32
  %45 = add nsw i32 %12, %44
  %46 = sext i32 %45 to i64
  %47 = getelementptr inbounds [100 x i8], [100 x i8]* %2, i64 0, i64 %46
  %48 = bitcast i8* %47 to <16 x i8>*
  store <16 x i8> %40, <16 x i8>* %48, align 1, !tbaa !5
  %49 = getelementptr inbounds i8, i8* %47, i64 16
  %50 = bitcast i8* %49 to <16 x i8>*
  store <16 x i8> %43, <16 x i8>* %50, align 1, !tbaa !5
  %51 = or i64 %36, 32
  %52 = getelementptr inbounds [100 x i8], [100 x i8]* %1, i64 0, i64 %51
  %53 = bitcast i8* %52 to <16 x i8>*
  %54 = load <16 x i8>, <16 x i8>* %53, align 16, !tbaa !5
  %55 = getelementptr inbounds i8, i8* %52, i64 16
  %56 = bitcast i8* %55 to <16 x i8>*
  %57 = load <16 x i8>, <16 x i8>* %56, align 16, !tbaa !5
  %58 = trunc i64 %51 to i32
  %59 = add nsw i32 %12, %58
  %60 = sext i32 %59 to i64
  %61 = getelementptr inbounds [100 x i8], [100 x i8]* %2, i64 0, i64 %60
  %62 = bitcast i8* %61 to <16 x i8>*
  store <16 x i8> %54, <16 x i8>* %62, align 1, !tbaa !5
  %63 = getelementptr inbounds i8, i8* %61, i64 16
  %64 = bitcast i8* %63 to <16 x i8>*
  store <16 x i8> %57, <16 x i8>* %64, align 1, !tbaa !5
  %65 = add nuw i64 %36, 64
  %66 = add i64 %37, -2
  %67 = icmp eq i64 %66, 0
  br i1 %67, label %68, label %35, !llvm.loop !8

68:                                               ; preds = %35, %26
  %69 = phi i64 [ 0, %26 ], [ %65, %35 ]
  %70 = icmp eq i64 %31, 0
  br i1 %70, label %85, label %71

71:                                               ; preds = %68
  %72 = getelementptr inbounds [100 x i8], [100 x i8]* %1, i64 0, i64 %69
  %73 = bitcast i8* %72 to <16 x i8>*
  %74 = load <16 x i8>, <16 x i8>* %73, align 16, !tbaa !5
  %75 = getelementptr inbounds i8, i8* %72, i64 16
  %76 = bitcast i8* %75 to <16 x i8>*
  %77 = load <16 x i8>, <16 x i8>* %76, align 16, !tbaa !5
  %78 = trunc i64 %69 to i32
  %79 = add nsw i32 %12, %78
  %80 = sext i32 %79 to i64
  %81 = getelementptr inbounds [100 x i8], [100 x i8]* %2, i64 0, i64 %80
  %82 = bitcast i8* %81 to <16 x i8>*
  store <16 x i8> %74, <16 x i8>* %82, align 1, !tbaa !5
  %83 = getelementptr inbounds i8, i8* %81, i64 16
  %84 = bitcast i8* %83 to <16 x i8>*
  store <16 x i8> %77, <16 x i8>* %84, align 1, !tbaa !5
  br label %85

85:                                               ; preds = %68, %71
  %86 = icmp eq i64 %27, %15
  br i1 %86, label %275, label %87

87:                                               ; preds = %85
  %88 = and i64 %15, 24
  %89 = icmp eq i64 %88, 0
  br i1 %89, label %107, label %90

90:                                               ; preds = %24, %87
  %91 = phi i64 [ %27, %87 ], [ 0, %24 ]
  %92 = and i64 %15, 4294967288
  br label %93

93:                                               ; preds = %93, %90
  %94 = phi i64 [ %91, %90 ], [ %103, %93 ]
  %95 = getelementptr inbounds [100 x i8], [100 x i8]* %1, i64 0, i64 %94
  %96 = bitcast i8* %95 to <8 x i8>*
  %97 = load <8 x i8>, <8 x i8>* %96, align 8, !tbaa !5
  %98 = trunc i64 %94 to i32
  %99 = add nsw i32 %12, %98
  %100 = sext i32 %99 to i64
  %101 = getelementptr inbounds [100 x i8], [100 x i8]* %2, i64 0, i64 %100
  %102 = bitcast i8* %101 to <8 x i8>*
  store <8 x i8> %97, <8 x i8>* %102, align 1, !tbaa !5
  %103 = add nuw i64 %94, 8
  %104 = icmp eq i64 %103, %92
  br i1 %104, label %105, label %93, !llvm.loop !11

105:                                              ; preds = %93
  %106 = icmp eq i64 %92, %15
  br i1 %106, label %275, label %107

107:                                              ; preds = %17, %14, %87, %105
  %108 = phi i64 [ 0, %14 ], [ 0, %17 ], [ %27, %87 ], [ %92, %105 ]
  %109 = xor i64 %108, -1
  %110 = add nsw i64 %109, %15
  %111 = and i64 %15, 3
  %112 = icmp eq i64 %111, 0
  br i1 %112, label %125, label %113

113:                                              ; preds = %107, %113
  %114 = phi i64 [ %122, %113 ], [ %108, %107 ]
  %115 = phi i64 [ %123, %113 ], [ %111, %107 ]
  %116 = getelementptr inbounds [100 x i8], [100 x i8]* %1, i64 0, i64 %114
  %117 = load i8, i8* %116, align 1, !tbaa !5
  %118 = trunc i64 %114 to i32
  %119 = add nsw i32 %12, %118
  %120 = sext i32 %119 to i64
  %121 = getelementptr inbounds [100 x i8], [100 x i8]* %2, i64 0, i64 %120
  store i8 %117, i8* %121, align 1, !tbaa !5
  %122 = add nuw nsw i64 %114, 1
  %123 = add i64 %115, -1
  %124 = icmp eq i64 %123, 0
  br i1 %124, label %125, label %113, !llvm.loop !12

125:                                              ; preds = %113, %107
  %126 = phi i64 [ %108, %107 ], [ %122, %113 ]
  %127 = icmp ult i64 %110, 3
  br i1 %127, label %275, label %278

128:                                              ; preds = %9, %269
  %129 = phi i32 [ 0, %9 ], [ %274, %269 ]
  %130 = phi i64 [ %10, %9 ], [ %273, %269 ]
  %131 = phi i32 [ %7, %9 ], [ %136, %269 ]
  %132 = phi i32 [ 0, %9 ], [ %271, %269 ]
  %133 = phi i32 [ %7, %9 ], [ %270, %269 ]
  %134 = sub i32 %129, %7
  %135 = sub i32 %7, %129
  %136 = add nsw i32 %131, -1
  %137 = zext i32 %136 to i64
  %138 = getelementptr inbounds [100 x i8], [100 x i8]* %1, i64 0, i64 %137
  %139 = load i8, i8* %138, align 1, !tbaa !5
  %140 = icmp eq i8 %139, 32
  br i1 %140, label %141, label %269

141:                                              ; preds = %128
  %142 = sub nsw i32 %133, %136
  %143 = add i32 %142, -1
  %144 = icmp sgt i32 %142, 1
  br i1 %144, label %145, label %261

145:                                              ; preds = %141
  %146 = sext i32 %132 to i64
  %147 = zext i32 %143 to i64
  %148 = call i64 @llvm.umax.i64(i64 %147, i64 1)
  %149 = icmp ult i64 %148, 8
  br i1 %149, label %248, label %150

150:                                              ; preds = %145
  %151 = call i64 @llvm.umax.i64(i64 %147, i64 1)
  %152 = add nsw i64 %151, -1
  %153 = trunc i64 %152 to i32
  %154 = add i32 %135, %153
  %155 = icmp slt i32 %154, %135
  %156 = icmp ugt i64 %152, 4294967295
  %157 = or i1 %155, %156
  br i1 %157, label %248, label %158

158:                                              ; preds = %150
  %159 = icmp ult i64 %148, 32
  br i1 %159, label %227, label %160

160:                                              ; preds = %158
  %161 = and i64 %148, 4294967264
  %162 = add nsw i64 %161, -32
  %163 = lshr exact i64 %162, 5
  %164 = add nuw nsw i64 %163, 1
  %165 = and i64 %164, 1
  %166 = icmp eq i64 %162, 0
  br i1 %166, label %204, label %167

167:                                              ; preds = %160
  %168 = and i64 %164, 1152921504606846974
  br label %169

169:                                              ; preds = %169, %167
  %170 = phi i64 [ 0, %167 ], [ %201, %169 ]
  %171 = phi i64 [ %168, %167 ], [ %202, %169 ]
  %172 = add i64 %170, %130
  %173 = shl i64 %172, 32
  %174 = ashr exact i64 %173, 32
  %175 = getelementptr inbounds [100 x i8], [100 x i8]* %1, i64 0, i64 %174
  %176 = bitcast i8* %175 to <16 x i8>*
  %177 = load <16 x i8>, <16 x i8>* %176, align 1, !tbaa !5
  %178 = getelementptr inbounds i8, i8* %175, i64 16
  %179 = bitcast i8* %178 to <16 x i8>*
  %180 = load <16 x i8>, <16 x i8>* %179, align 1, !tbaa !5
  %181 = add nsw i64 %170, %146
  %182 = getelementptr inbounds [100 x i8], [100 x i8]* %2, i64 0, i64 %181
  %183 = bitcast i8* %182 to <16 x i8>*
  store <16 x i8> %177, <16 x i8>* %183, align 1, !tbaa !5
  %184 = getelementptr inbounds i8, i8* %182, i64 16
  %185 = bitcast i8* %184 to <16 x i8>*
  store <16 x i8> %180, <16 x i8>* %185, align 1, !tbaa !5
  %186 = or i64 %170, 32
  %187 = add i64 %186, %130
  %188 = shl i64 %187, 32
  %189 = ashr exact i64 %188, 32
  %190 = getelementptr inbounds [100 x i8], [100 x i8]* %1, i64 0, i64 %189
  %191 = bitcast i8* %190 to <16 x i8>*
  %192 = load <16 x i8>, <16 x i8>* %191, align 1, !tbaa !5
  %193 = getelementptr inbounds i8, i8* %190, i64 16
  %194 = bitcast i8* %193 to <16 x i8>*
  %195 = load <16 x i8>, <16 x i8>* %194, align 1, !tbaa !5
  %196 = add nsw i64 %186, %146
  %197 = getelementptr inbounds [100 x i8], [100 x i8]* %2, i64 0, i64 %196
  %198 = bitcast i8* %197 to <16 x i8>*
  store <16 x i8> %192, <16 x i8>* %198, align 1, !tbaa !5
  %199 = getelementptr inbounds i8, i8* %197, i64 16
  %200 = bitcast i8* %199 to <16 x i8>*
  store <16 x i8> %195, <16 x i8>* %200, align 1, !tbaa !5
  %201 = add nuw i64 %170, 64
  %202 = add i64 %171, -2
  %203 = icmp eq i64 %202, 0
  br i1 %203, label %204, label %169, !llvm.loop !14

204:                                              ; preds = %169, %160
  %205 = phi i64 [ 0, %160 ], [ %201, %169 ]
  %206 = icmp eq i64 %165, 0
  br i1 %206, label %222, label %207

207:                                              ; preds = %204
  %208 = add i64 %205, %130
  %209 = shl i64 %208, 32
  %210 = ashr exact i64 %209, 32
  %211 = getelementptr inbounds [100 x i8], [100 x i8]* %1, i64 0, i64 %210
  %212 = bitcast i8* %211 to <16 x i8>*
  %213 = load <16 x i8>, <16 x i8>* %212, align 1, !tbaa !5
  %214 = getelementptr inbounds i8, i8* %211, i64 16
  %215 = bitcast i8* %214 to <16 x i8>*
  %216 = load <16 x i8>, <16 x i8>* %215, align 1, !tbaa !5
  %217 = add nsw i64 %205, %146
  %218 = getelementptr inbounds [100 x i8], [100 x i8]* %2, i64 0, i64 %217
  %219 = bitcast i8* %218 to <16 x i8>*
  store <16 x i8> %213, <16 x i8>* %219, align 1, !tbaa !5
  %220 = getelementptr inbounds i8, i8* %218, i64 16
  %221 = bitcast i8* %220 to <16 x i8>*
  store <16 x i8> %216, <16 x i8>* %221, align 1, !tbaa !5
  br label %222

222:                                              ; preds = %204, %207
  %223 = icmp eq i64 %148, %161
  br i1 %223, label %261, label %224

224:                                              ; preds = %222
  %225 = and i64 %148, 24
  %226 = icmp eq i64 %225, 0
  br i1 %226, label %248, label %227

227:                                              ; preds = %158, %224
  %228 = phi i64 [ %161, %224 ], [ 0, %158 ]
  %229 = add i32 %133, %134
  %230 = call i32 @llvm.umax.i32(i32 %229, i32 1)
  %231 = zext i32 %230 to i64
  %232 = and i64 %231, 4294967288
  br label %233

233:                                              ; preds = %233, %227
  %234 = phi i64 [ %228, %227 ], [ %244, %233 ]
  %235 = add i64 %234, %130
  %236 = shl i64 %235, 32
  %237 = ashr exact i64 %236, 32
  %238 = getelementptr inbounds [100 x i8], [100 x i8]* %1, i64 0, i64 %237
  %239 = bitcast i8* %238 to <8 x i8>*
  %240 = load <8 x i8>, <8 x i8>* %239, align 1, !tbaa !5
  %241 = add nsw i64 %234, %146
  %242 = getelementptr inbounds [100 x i8], [100 x i8]* %2, i64 0, i64 %241
  %243 = bitcast i8* %242 to <8 x i8>*
  store <8 x i8> %240, <8 x i8>* %243, align 1, !tbaa !5
  %244 = add nuw i64 %234, 8
  %245 = icmp eq i64 %244, %232
  br i1 %245, label %246, label %233, !llvm.loop !15

246:                                              ; preds = %233
  %247 = icmp eq i64 %232, %231
  br i1 %247, label %261, label %248

248:                                              ; preds = %150, %145, %224, %246
  %249 = phi i64 [ 0, %145 ], [ 0, %150 ], [ %161, %224 ], [ %232, %246 ]
  br label %250

250:                                              ; preds = %248, %250
  %251 = phi i64 [ %259, %250 ], [ %249, %248 ]
  %252 = add i64 %251, %130
  %253 = shl i64 %252, 32
  %254 = ashr exact i64 %253, 32
  %255 = getelementptr inbounds [100 x i8], [100 x i8]* %1, i64 0, i64 %254
  %256 = load i8, i8* %255, align 1, !tbaa !5
  %257 = add nsw i64 %251, %146
  %258 = getelementptr inbounds [100 x i8], [100 x i8]* %2, i64 0, i64 %257
  store i8 %256, i8* %258, align 1, !tbaa !5
  %259 = add nuw nsw i64 %251, 1
  %260 = icmp ult i64 %259, %147
  br i1 %260, label %250, label %261, !llvm.loop !16

261:                                              ; preds = %250, %222, %246, %141
  %262 = trunc i64 %130 to i32
  %263 = add i32 %143, %132
  %264 = sext i32 %263 to i64
  %265 = getelementptr inbounds [100 x i8], [100 x i8]* %2, i64 0, i64 %264
  store i8 32, i8* %265, align 1, !tbaa !5
  %266 = add nsw i32 %132, %133
  %267 = sub i32 1, %262
  %268 = add i32 %266, %267
  br label %269

269:                                              ; preds = %128, %261
  %270 = phi i32 [ %136, %261 ], [ %133, %128 ]
  %271 = phi i32 [ %268, %261 ], [ %132, %128 ]
  %272 = icmp sgt i64 %130, 1
  %273 = add nsw i64 %130, -1
  %274 = add i32 %129, 1
  br i1 %272, label %128, label %11, !llvm.loop !17

275:                                              ; preds = %125, %278, %85, %105, %11
  br i1 %8, label %276, label %317

276:                                              ; preds = %275
  %277 = and i64 %6, 4294967295
  br label %309

278:                                              ; preds = %125, %278
  %279 = phi i64 [ %307, %278 ], [ %126, %125 ]
  %280 = getelementptr inbounds [100 x i8], [100 x i8]* %1, i64 0, i64 %279
  %281 = load i8, i8* %280, align 1, !tbaa !5
  %282 = trunc i64 %279 to i32
  %283 = add nsw i32 %12, %282
  %284 = sext i32 %283 to i64
  %285 = getelementptr inbounds [100 x i8], [100 x i8]* %2, i64 0, i64 %284
  store i8 %281, i8* %285, align 1, !tbaa !5
  %286 = add nuw nsw i64 %279, 1
  %287 = getelementptr inbounds [100 x i8], [100 x i8]* %1, i64 0, i64 %286
  %288 = load i8, i8* %287, align 1, !tbaa !5
  %289 = trunc i64 %286 to i32
  %290 = add nsw i32 %12, %289
  %291 = sext i32 %290 to i64
  %292 = getelementptr inbounds [100 x i8], [100 x i8]* %2, i64 0, i64 %291
  store i8 %288, i8* %292, align 1, !tbaa !5
  %293 = add nuw nsw i64 %279, 2
  %294 = getelementptr inbounds [100 x i8], [100 x i8]* %1, i64 0, i64 %293
  %295 = load i8, i8* %294, align 1, !tbaa !5
  %296 = trunc i64 %293 to i32
  %297 = add nsw i32 %12, %296
  %298 = sext i32 %297 to i64
  %299 = getelementptr inbounds [100 x i8], [100 x i8]* %2, i64 0, i64 %298
  store i8 %295, i8* %299, align 1, !tbaa !5
  %300 = add nuw nsw i64 %279, 3
  %301 = getelementptr inbounds [100 x i8], [100 x i8]* %1, i64 0, i64 %300
  %302 = load i8, i8* %301, align 1, !tbaa !5
  %303 = trunc i64 %300 to i32
  %304 = add nsw i32 %12, %303
  %305 = sext i32 %304 to i64
  %306 = getelementptr inbounds [100 x i8], [100 x i8]* %2, i64 0, i64 %305
  store i8 %302, i8* %306, align 1, !tbaa !5
  %307 = add nuw nsw i64 %279, 4
  %308 = icmp eq i64 %307, %15
  br i1 %308, label %275, label %278, !llvm.loop !18

309:                                              ; preds = %276, %309
  %310 = phi i64 [ 0, %276 ], [ %315, %309 ]
  %311 = getelementptr inbounds [100 x i8], [100 x i8]* %2, i64 0, i64 %310
  %312 = load i8, i8* %311, align 1, !tbaa !5
  %313 = sext i8 %312 to i32
  %314 = call i32 @putchar(i32 %313)
  %315 = add nuw nsw i64 %310, 1
  %316 = icmp eq i64 %315, %277
  br i1 %316, label %317, label %309, !llvm.loop !19

317:                                              ; preds = %309, %0, %275
  call void @llvm.lifetime.end.p0i8(i64 100, i8* nonnull %4) #6
  call void @llvm.lifetime.end.p0i8(i64 100, i8* nonnull %3) #6
  ret void
}

; Function Attrs: argmemonly mustprogress nofree nosync nounwind willreturn
declare void @llvm.lifetime.start.p0i8(i64 immarg, i8* nocapture) #1

declare i32 @gets(...) local_unnamed_addr #2

; Function Attrs: argmemonly mustprogress nofree nounwind readonly willreturn
declare i64 @strlen(i8* nocapture) local_unnamed_addr #3

; Function Attrs: argmemonly mustprogress nofree nosync nounwind willreturn
declare void @llvm.lifetime.end.p0i8(i64 immarg, i8* nocapture) #1

; Function Attrs: nofree nounwind
declare noundef i32 @putchar(i32 noundef) local_unnamed_addr #4

; Function Attrs: nofree nosync nounwind readnone speculatable willreturn
declare i64 @llvm.umax.i64(i64, i64) #5

; Function Attrs: nofree nosync nounwind readnone speculatable willreturn
declare i32 @llvm.umax.i32(i32, i32) #5


!llvm.module.flags = !{!0, !1, !2, !3}
!llvm.ident = !{!4}

!0 = !{i32 1, !"wchar_size", i32 4}
!1 = !{i32 7, !"PIC Level", i32 2}
!2 = !{i32 7, !"PIE Level", i32 2}
!3 = !{i32 7, !"uwtable", i32 1}
!4 = !{!"clang version 13.0.0"}
!5 = !{!6, !6, i64 0}
!6 = !{!"omnipotent char", !7, i64 0}
!7 = !{!"Simple C/C++ TBAA"}
!8 = distinct !{!8, !9, !10}
!9 = !{!"llvm.loop.mustprogress"}
!10 = !{!"llvm.loop.isvectorized", i32 1}
!11 = distinct !{!11, !9, !10}
!12 = distinct !{!12, !13}
!13 = !{!"llvm.loop.unroll.disable"}
!14 = distinct !{!14, !9, !10}
!15 = distinct !{!15, !9, !10}
!16 = distinct !{!16, !9, !10}
!17 = distinct !{!17, !9}
!18 = distinct !{!18, !9, !10}
!19 = distinct !{!19, !9}
